target datalayout = "e-m:e-p270:32:32-p271:32:32-p272:64:64-i64:64-i128:128-f80:128-n8:16:32:64-S128"
target triple = "x86_64-pc-linux-gnu"

%"class.pbrt::SampledSpectrum" = type { %"class.pstd::array" }
%"class.pstd::array" = type { [4 x float] }
%"class.pbrt::HairBxDF" = type { float, float, %"class.pbrt::SampledSpectrum", float, float, [4 x float], float, [3 x float], [3 x float] }

@.str.3 = private unnamed_addr constant [17 x i8] c"Check failed: %s\00", align 1
@.str.16 = private unnamed_addr constant [112 x i8] c"generated/home/dtcxzyw/WorkSpace/Projects/compilers/llvm-opt-benchmark/bench/pbrt-v4/pbrt-v4/src/pbrt/bxdfs.cpp\00", align 1
@.str.21 = private unnamed_addr constant [18 x i8] c"h >= -1 && h <= 1\00", align 1
@.str.22 = private unnamed_addr constant [27 x i8] c"beta_m >= 0 && beta_m <= 1\00", align 1
@.str.23 = private unnamed_addr constant [27 x i8] c"beta_n >= 0 && beta_n <= 1\00", align 1

; Function Attrs: inlinehint mustprogress nounwind uwtable
define linkonce_odr dso_local noundef float @_ZN4pbrt3PowILi2EEEff(float noundef %0) #5 comdat {
  %2 = alloca float, align 4
  %3 = alloca float, align 4
  store float %0, ptr %2, align 4, !tbaa !9
  call void @llvm.lifetime.start.p0(i64 4, ptr %3) #12
  %4 = load float, ptr %2, align 4, !tbaa !9
  %5 = call noundef float @_ZN4pbrt3PowILi1EEEff(float noundef %4)
  store float %5, ptr %3, align 4, !tbaa !9
  %6 = load float, ptr %3, align 4, !tbaa !9
  %7 = load float, ptr %3, align 4, !tbaa !9
  %8 = fmul float %6, %7
  %9 = load float, ptr %2, align 4, !tbaa !9
  %10 = call noundef float @_ZN4pbrt3PowILi0EEEff(float noundef %9)
  %11 = fmul float %8, %10
  call void @llvm.lifetime.end.p0(i64 4, ptr %3) #12
  ret float %11
}

; Function Attrs: inlinehint mustprogress nounwind uwtable
define linkonce_odr dso_local noundef float @_ZN4pbrt3PowILi1EEEff(float noundef %0) #5 comdat {
  %2 = alloca float, align 4
  store float %0, ptr %2, align 4, !tbaa !9
  %3 = load float, ptr %2, align 4, !tbaa !9
  ret float %3
}

; Function Attrs: inlinehint mustprogress nounwind uwtable
define linkonce_odr dso_local noundef float @_ZN4pbrt3PowILi5EEEff(float noundef %0) #5 comdat {
  %2 = alloca float, align 4
  %3 = alloca float, align 4
  store float %0, ptr %2, align 4, !tbaa !9
  call void @llvm.lifetime.start.p0(i64 4, ptr %3) #12
  %4 = load float, ptr %2, align 4, !tbaa !9
  %5 = call noundef float @_ZN4pbrt3PowILi2EEEff(float noundef %4)
  store float %5, ptr %3, align 4, !tbaa !9
  %6 = load float, ptr %3, align 4, !tbaa !9
  %7 = load float, ptr %3, align 4, !tbaa !9
  %8 = fmul float %6, %7
  %9 = load float, ptr %2, align 4, !tbaa !9
  %10 = call noundef float @_ZN4pbrt3PowILi1EEEff(float noundef %9)
  %11 = fmul float %8, %10
  call void @llvm.lifetime.end.p0(i64 4, ptr %3) #12
  ret float %11
}

; Function Attrs: inlinehint mustprogress nounwind uwtable
define linkonce_odr dso_local noundef float @_ZSt4sqrtf(float noundef %0) #5 comdat {
  %2 = alloca float, align 4
  store float %0, ptr %2, align 4, !tbaa !9
  %3 = load float, ptr %2, align 4, !tbaa !9
  %4 = call float @sqrtf(float noundef %3) #12, !tbaa !17
  ret float %4
}

; Function Attrs: inlinehint mustprogress nounwind uwtable
define linkonce_odr dso_local noundef nonnull align 4 dereferenceable(4) ptr @_ZSt3maxIfERKT_S2_S2_(ptr noundef nonnull align 4 dereferenceable(4) %0, ptr noundef nonnull align 4 dereferenceable(4) %1) #5 comdat {
  %3 = alloca ptr, align 8
  %4 = alloca ptr, align 8
  %5 = alloca ptr, align 8
  store ptr %0, ptr %4, align 8, !tbaa !32
  store ptr %1, ptr %5, align 8, !tbaa !32
  %6 = load ptr, ptr %4, align 8, !tbaa !32
  %7 = load float, ptr %6, align 4, !tbaa !9
  %8 = load ptr, ptr %5, align 8, !tbaa !32
  %9 = load float, ptr %8, align 4, !tbaa !9
  %10 = fcmp olt float %7, %9
  br i1 %10, label %11, label %13

11:                                               ; preds = %2
  %12 = load ptr, ptr %5, align 8, !tbaa !32
  store ptr %12, ptr %3, align 8
  br label %15

13:                                               ; preds = %2
  %14 = load ptr, ptr %4, align 8, !tbaa !32
  store ptr %14, ptr %3, align 8
  br label %15

15:                                               ; preds = %13, %11
  %16 = load ptr, ptr %3, align 8
  ret ptr %16
}

; Function Attrs: inlinehint mustprogress uwtable
define linkonce_odr dso_local noundef float @_ZN4pbrt3PowILi11EEEff(float noundef %0) #7 comdat {
  %2 = alloca float, align 4
  %3 = alloca float, align 4
  store float %0, ptr %2, align 4, !tbaa !9
  call void @llvm.lifetime.start.p0(i64 4, ptr %3) #12
  %4 = load float, ptr %2, align 4, !tbaa !9
  %5 = call noundef float @_ZN4pbrt3PowILi5EEEff(float noundef %4)
  store float %5, ptr %3, align 4, !tbaa !9
  %6 = load float, ptr %3, align 4, !tbaa !9
  %7 = load float, ptr %3, align 4, !tbaa !9
  %8 = fmul float %6, %7
  %9 = load float, ptr %2, align 4, !tbaa !9
  %10 = call noundef float @_ZN4pbrt3PowILi1EEEff(float noundef %9)
  %11 = fmul float %8, %10
  call void @llvm.lifetime.end.p0(i64 4, ptr %3) #12
  ret float %11
}

; Function Attrs: inlinehint mustprogress nounwind uwtable
define linkonce_odr dso_local noundef float @_ZN4pbrt3PowILi0EEEff(float noundef %0) #5 comdat {
  %2 = alloca float, align 4
  store float %0, ptr %2, align 4, !tbaa !9
  ret float 1.000000e+00
}

; Function Attrs: inlinehint mustprogress uwtable
define linkonce_odr dso_local noundef float @_ZN4pbrt3PowILi10EEEff(float noundef %0) #7 comdat {
  %2 = alloca float, align 4
  %3 = alloca float, align 4
  store float %0, ptr %2, align 4, !tbaa !9
  call void @llvm.lifetime.start.p0(i64 4, ptr %3) #12
  %4 = load float, ptr %2, align 4, !tbaa !9
  %5 = call noundef float @_ZN4pbrt3PowILi5EEEff(float noundef %4)
  store float %5, ptr %3, align 4, !tbaa !9
  %6 = load float, ptr %3, align 4, !tbaa !9
  %7 = load float, ptr %3, align 4, !tbaa !9
  %8 = fmul float %6, %7
  %9 = load float, ptr %2, align 4, !tbaa !9
  %10 = call noundef float @_ZN4pbrt3PowILi0EEEff(float noundef %9)
  %11 = fmul float %8, %10
  call void @llvm.lifetime.end.p0(i64 4, ptr %3) #12
  ret float %11
}

; Function Attrs: inlinehint mustprogress uwtable
define linkonce_odr dso_local noundef float @_ZN4pbrt8SafeSqrtEf(float noundef %0) #7 comdat {
  %2 = alloca float, align 4
  %3 = alloca float, align 4
  store float %0, ptr %2, align 4, !tbaa !9
  br label %4

4:                                                ; preds = %1
  br label %5

5:                                                ; preds = %4
  call void @llvm.lifetime.start.p0(i64 4, ptr %3) #12
  store float 0.000000e+00, ptr %3, align 4, !tbaa !9
  %6 = call noundef nonnull align 4 dereferenceable(4) ptr @_ZSt3maxIfERKT_S2_S2_(ptr noundef nonnull align 4 dereferenceable(4) %3, ptr noundef nonnull align 4 dereferenceable(4) %2)
  %7 = load float, ptr %6, align 4, !tbaa !9
  %8 = call noundef float @_ZSt4sqrtf(float noundef %7)
  call void @llvm.lifetime.end.p0(i64 4, ptr %3) #12
  ret float %8
}

; Function Attrs: inlinehint mustprogress nounwind uwtable
define linkonce_odr dso_local noundef float @_ZSt3sinf(float noundef %0) #5 comdat {
  %2 = alloca float, align 4
  store float %0, ptr %2, align 4, !tbaa !9
  %3 = load float, ptr %2, align 4, !tbaa !9
  %4 = call float @sinf(float noundef %3) #12, !tbaa !17
  ret float %4
}

; Function Attrs: inlinehint mustprogress nounwind uwtable
define linkonce_odr dso_local noundef float @_ZN4pbrt7RadiansEf(float noundef %0) #5 comdat {
  %2 = alloca float, align 4
  store float %0, ptr %2, align 4, !tbaa !9
  %3 = load float, ptr %2, align 4, !tbaa !9
  %4 = fmul float 0x3F91DF46A0000000, %3
  ret float %4
}

; Function Attrs: inlinehint mustprogress uwtable
define linkonce_odr dso_local noundef float @_ZN4pbrt3PowILi22EEEff(float noundef %0) #7 comdat {
  %2 = alloca float, align 4
  %3 = alloca float, align 4
  store float %0, ptr %2, align 4, !tbaa !9
  call void @llvm.lifetime.start.p0(i64 4, ptr %3) #12
  %4 = load float, ptr %2, align 4, !tbaa !9
  %5 = call noundef float @_ZN4pbrt3PowILi11EEEff(float noundef %4)
  store float %5, ptr %3, align 4, !tbaa !9
  %6 = load float, ptr %3, align 4, !tbaa !9
  %7 = load float, ptr %3, align 4, !tbaa !9
  %8 = fmul float %6, %7
  %9 = load float, ptr %2, align 4, !tbaa !9
  %10 = call noundef float @_ZN4pbrt3PowILi0EEEff(float noundef %9)
  %11 = fmul float %8, %10
  call void @llvm.lifetime.end.p0(i64 4, ptr %3) #12
  ret float %11
}

; Function Attrs: inlinehint mustprogress uwtable
define linkonce_odr dso_local noundef float @_ZN4pbrt3PowILi20EEEff(float noundef %0) #7 comdat {
  %2 = alloca float, align 4
  %3 = alloca float, align 4
  store float %0, ptr %2, align 4, !tbaa !9
  call void @llvm.lifetime.start.p0(i64 4, ptr %3) #12
  %4 = load float, ptr %2, align 4, !tbaa !9
  %5 = call noundef float @_ZN4pbrt3PowILi10EEEff(float noundef %4)
  store float %5, ptr %3, align 4, !tbaa !9
  %6 = load float, ptr %3, align 4, !tbaa !9
  %7 = load float, ptr %3, align 4, !tbaa !9
  %8 = fmul float %6, %7
  %9 = load float, ptr %2, align 4, !tbaa !9
  %10 = call noundef float @_ZN4pbrt3PowILi0EEEff(float noundef %9)
  %11 = fmul float %8, %10
  call void @llvm.lifetime.end.p0(i64 4, ptr %3) #12
  ret float %11
}

; Function Attrs: inlinehint mustprogress nounwind uwtable
define linkonce_odr dso_local noundef float @_ZN4pbrt3SqrIfEET_S1_(float noundef %0) #5 comdat {
  %2 = alloca float, align 4
  store float %0, ptr %2, align 4, !tbaa !9
  %3 = load float, ptr %2, align 4, !tbaa !9
  %4 = load float, ptr %2, align 4, !tbaa !9
  %5 = fmul float %3, %4
  ret float %5
}

; Function Attrs: mustprogress uwtable
define dso_local void @_ZN4pbrt8HairBxDFC2EffRKNS_15SampledSpectrumEfff(ptr noundef nonnull align 4 dereferenceable(76) %0, float noundef %1, float noundef %2, ptr noundef nonnull align 4 dereferenceable(16) %3, float noundef %4, float noundef %5, float noundef %6) unnamed_addr #1 align 2 {
  %8 = alloca ptr, align 8
  %9 = alloca float, align 4
  %10 = alloca float, align 4
  %11 = alloca ptr, align 8
  %12 = alloca float, align 4
  %13 = alloca float, align 4
  %14 = alloca float, align 4
  %15 = alloca i32, align 4
  %16 = alloca i32, align 4
  store ptr %0, ptr %8, align 8, !tbaa !163
  store float %1, ptr %9, align 4, !tbaa !9
  store float %2, ptr %10, align 4, !tbaa !9
  store ptr %3, ptr %11, align 8, !tbaa !15
  store float %4, ptr %12, align 4, !tbaa !9
  store float %5, ptr %13, align 4, !tbaa !9
  store float %6, ptr %14, align 4, !tbaa !9
  %17 = load ptr, ptr %8, align 8
  %18 = getelementptr inbounds nuw %"class.pbrt::HairBxDF", ptr %17, i32 0, i32 0
  %19 = load float, ptr %9, align 4, !tbaa !9
  store float %19, ptr %18, align 4, !tbaa !165
  %20 = getelementptr inbounds nuw %"class.pbrt::HairBxDF", ptr %17, i32 0, i32 1
  %21 = load float, ptr %10, align 4, !tbaa !9
  store float %21, ptr %20, align 4, !tbaa !167
  %22 = getelementptr inbounds nuw %"class.pbrt::HairBxDF", ptr %17, i32 0, i32 2
  %23 = load ptr, ptr %11, align 8, !tbaa !15
  call void @llvm.memcpy.p0.p0.i64(ptr align 4 %22, ptr align 4 %23, i64 16, i1 false), !tbaa.struct !20
  %24 = getelementptr inbounds nuw %"class.pbrt::HairBxDF", ptr %17, i32 0, i32 3
  %25 = load float, ptr %12, align 4, !tbaa !9
  store float %25, ptr %24, align 4, !tbaa !168
  %26 = getelementptr inbounds nuw %"class.pbrt::HairBxDF", ptr %17, i32 0, i32 4
  %27 = load float, ptr %13, align 4, !tbaa !9
  store float %27, ptr %26, align 4, !tbaa !169
  %28 = load float, ptr %9, align 4, !tbaa !9
  %29 = fcmp oge float %28, -1.000000e+00
  br i1 %29, label %30, label %33

30:                                               ; preds = %7
  %31 = load float, ptr %9, align 4, !tbaa !9
  %32 = fcmp ole float %31, 1.000000e+00
  br i1 %32, label %35, label %33

33:                                               ; preds = %30, %7
  call void @_ZN4pbrt8LogFatalIJRA18_KcEEEvNS_8LogLevelEPS1_iS5_DpOT_(i32 noundef 2, ptr noundef @.str.16, i32 noundef 278, ptr noundef @.str.3, ptr noundef nonnull align 1 dereferenceable(18) @.str.21) #24
  unreachable

34:                                               ; No predecessors!
  br label %35

35:                                               ; preds = %34, %30
  %36 = load float, ptr %12, align 4, !tbaa !9
  %37 = fcmp oge float %36, 0.000000e+00
  br i1 %37, label %38, label %41

38:                                               ; preds = %35
  %39 = load float, ptr %12, align 4, !tbaa !9
  %40 = fcmp ole float %39, 1.000000e+00
  br i1 %40, label %43, label %41

41:                                               ; preds = %38, %35
  call void @_ZN4pbrt8LogFatalIJRA27_KcEEEvNS_8LogLevelEPS1_iS5_DpOT_(i32 noundef 2, ptr noundef @.str.16, i32 noundef 279, ptr noundef @.str.3, ptr noundef nonnull align 1 dereferenceable(27) @.str.22) #24
  unreachable

42:                                               ; No predecessors!
  br label %43

43:                                               ; preds = %42, %38
  %44 = load float, ptr %13, align 4, !tbaa !9
  %45 = fcmp oge float %44, 0.000000e+00
  br i1 %45, label %46, label %49

46:                                               ; preds = %43
  %47 = load float, ptr %13, align 4, !tbaa !9
  %48 = fcmp ole float %47, 1.000000e+00
  br i1 %48, label %51, label %49

49:                                               ; preds = %46, %43
  call void @_ZN4pbrt8LogFatalIJRA27_KcEEEvNS_8LogLevelEPS1_iS5_DpOT_(i32 noundef 2, ptr noundef @.str.16, i32 noundef 280, ptr noundef @.str.3, ptr noundef nonnull align 1 dereferenceable(27) @.str.23) #24
  unreachable

50:                                               ; No predecessors!
  br label %51

51:                                               ; preds = %50, %46
  %52 = load float, ptr %12, align 4, !tbaa !9
  %53 = fmul float 0x3FE73B6460000000, %52
  %54 = load float, ptr %12, align 4, !tbaa !9
  %55 = call noundef float @_ZN4pbrt3SqrIfEET_S1_(float noundef %54)
  %56 = fmul float 0x3FE9FBE760000000, %55
  %57 = fadd float %53, %56
  %58 = load float, ptr %12, align 4, !tbaa !9
  %59 = call noundef float @_ZN4pbrt3PowILi20EEEff(float noundef %58)
  %60 = fmul float 0x400D9999A0000000, %59
  %61 = fadd float %57, %60
  %62 = call noundef float @_ZN4pbrt3SqrIfEET_S1_(float noundef %61)
  %63 = getelementptr inbounds nuw %"class.pbrt::HairBxDF", ptr %17, i32 0, i32 5
  %64 = getelementptr inbounds [4 x float], ptr %63, i64 0, i64 0
  store float %62, ptr %64, align 4, !tbaa !9
  %65 = getelementptr inbounds nuw %"class.pbrt::HairBxDF", ptr %17, i32 0, i32 5
  %66 = getelementptr inbounds [4 x float], ptr %65, i64 0, i64 0
  %67 = load float, ptr %66, align 4, !tbaa !9
  %68 = fpext float %67 to double
  %69 = fmul double 2.500000e-01, %68
  %70 = fptrunc double %69 to float
  %71 = getelementptr inbounds nuw %"class.pbrt::HairBxDF", ptr %17, i32 0, i32 5
  %72 = getelementptr inbounds [4 x float], ptr %71, i64 0, i64 1
  store float %70, ptr %72, align 4, !tbaa !9
  %73 = getelementptr inbounds nuw %"class.pbrt::HairBxDF", ptr %17, i32 0, i32 5
  %74 = getelementptr inbounds [4 x float], ptr %73, i64 0, i64 0
  %75 = load float, ptr %74, align 4, !tbaa !9
  %76 = fmul float 4.000000e+00, %75
  %77 = getelementptr inbounds nuw %"class.pbrt::HairBxDF", ptr %17, i32 0, i32 5
  %78 = getelementptr inbounds [4 x float], ptr %77, i64 0, i64 2
  store float %76, ptr %78, align 4, !tbaa !9
  call void @llvm.lifetime.start.p0(i64 4, ptr %15) #12
  store i32 3, ptr %15, align 4, !tbaa !17
  br label %79

79:                                               ; preds = %91, %51
  %80 = load i32, ptr %15, align 4, !tbaa !17
  %81 = icmp sle i32 %80, 3
  br i1 %81, label %83, label %82

82:                                               ; preds = %79
  call void @llvm.lifetime.end.p0(i64 4, ptr %15) #12
  br label %94

83:                                               ; preds = %79
  %84 = getelementptr inbounds nuw %"class.pbrt::HairBxDF", ptr %17, i32 0, i32 5
  %85 = getelementptr inbounds [4 x float], ptr %84, i64 0, i64 2
  %86 = load float, ptr %85, align 4, !tbaa !9
  %87 = getelementptr inbounds nuw %"class.pbrt::HairBxDF", ptr %17, i32 0, i32 5
  %88 = load i32, ptr %15, align 4, !tbaa !17
  %89 = sext i32 %88 to i64
  %90 = getelementptr inbounds [4 x float], ptr %87, i64 0, i64 %89
  store float %86, ptr %90, align 4, !tbaa !9
  br label %91

91:                                               ; preds = %83
  %92 = load i32, ptr %15, align 4, !tbaa !17
  %93 = add nsw i32 %92, 1
  store i32 %93, ptr %15, align 4, !tbaa !17
  br label %79, !llvm.loop !170

94:                                               ; preds = %82
  %95 = load float, ptr %13, align 4, !tbaa !9
  %96 = fmul float 0x3FD0F5C280000000, %95
  %97 = load float, ptr %13, align 4, !tbaa !9
  %98 = call noundef float @_ZN4pbrt3SqrIfEET_S1_(float noundef %97)
  %99 = fmul float 0x3FF31A9FC0000000, %98
  %100 = fadd float %96, %99
  %101 = load float, ptr %13, align 4, !tbaa !9
  %102 = call noundef float @_ZN4pbrt3PowILi22EEEff(float noundef %101)
  %103 = fmul float 0x40157CEDA0000000, %102
  %104 = fadd float %100, %103
  %105 = fmul float 0x3FE40D9320000000, %104
  %106 = getelementptr inbounds nuw %"class.pbrt::HairBxDF", ptr %17, i32 0, i32 6
  store float %105, ptr %106, align 4, !tbaa !171
  br label %107

107:                                              ; preds = %94
  br label %108

108:                                              ; preds = %107
  %109 = load float, ptr %14, align 4, !tbaa !9
  %110 = call noundef float @_ZN4pbrt7RadiansEf(float noundef %109)
  %111 = call noundef float @_ZSt3sinf(float noundef %110)
  %112 = getelementptr inbounds nuw %"class.pbrt::HairBxDF", ptr %17, i32 0, i32 7
  %113 = getelementptr inbounds [3 x float], ptr %112, i64 0, i64 0
  store float %111, ptr %113, align 4, !tbaa !9
  %114 = getelementptr inbounds nuw %"class.pbrt::HairBxDF", ptr %17, i32 0, i32 7
  %115 = getelementptr inbounds [3 x float], ptr %114, i64 0, i64 0
  %116 = load float, ptr %115, align 4, !tbaa !9
  %117 = call noundef float @_ZN4pbrt3SqrIfEET_S1_(float noundef %116)
  %118 = fsub float 1.000000e+00, %117
  %119 = call noundef float @_ZN4pbrt8SafeSqrtEf(float noundef %118)
  %120 = getelementptr inbounds nuw %"class.pbrt::HairBxDF", ptr %17, i32 0, i32 8
  %121 = getelementptr inbounds [3 x float], ptr %120, i64 0, i64 0
  store float %119, ptr %121, align 4, !tbaa !9
  call void @llvm.lifetime.start.p0(i64 4, ptr %16) #12
  store i32 1, ptr %16, align 4, !tbaa !17
  br label %122

122:                                              ; preds = %164, %108
  %123 = load i32, ptr %16, align 4, !tbaa !17
  %124 = icmp slt i32 %123, 3
  br i1 %124, label %126, label %125

125:                                              ; preds = %122
  call void @llvm.lifetime.end.p0(i64 4, ptr %16) #12
  br label %167

126:                                              ; preds = %122
  %127 = getelementptr inbounds nuw %"class.pbrt::HairBxDF", ptr %17, i32 0, i32 8
  %128 = load i32, ptr %16, align 4, !tbaa !17
  %129 = sub nsw i32 %128, 1
  %130 = sext i32 %129 to i64
  %131 = getelementptr inbounds [3 x float], ptr %127, i64 0, i64 %130
  %132 = load float, ptr %131, align 4, !tbaa !9
  %133 = fmul float 2.000000e+00, %132
  %134 = getelementptr inbounds nuw %"class.pbrt::HairBxDF", ptr %17, i32 0, i32 7
  %135 = load i32, ptr %16, align 4, !tbaa !17
  %136 = sub nsw i32 %135, 1
  %137 = sext i32 %136 to i64
  %138 = getelementptr inbounds [3 x float], ptr %134, i64 0, i64 %137
  %139 = load float, ptr %138, align 4, !tbaa !9
  %140 = fmul float %133, %139
  %141 = getelementptr inbounds nuw %"class.pbrt::HairBxDF", ptr %17, i32 0, i32 7
  %142 = load i32, ptr %16, align 4, !tbaa !17
  %143 = sext i32 %142 to i64
  %144 = getelementptr inbounds [3 x float], ptr %141, i64 0, i64 %143
  store float %140, ptr %144, align 4, !tbaa !9
  %145 = getelementptr inbounds nuw %"class.pbrt::HairBxDF", ptr %17, i32 0, i32 8
  %146 = load i32, ptr %16, align 4, !tbaa !17
  %147 = sub nsw i32 %146, 1
  %148 = sext i32 %147 to i64
  %149 = getelementptr inbounds [3 x float], ptr %145, i64 0, i64 %148
  %150 = load float, ptr %149, align 4, !tbaa !9
  %151 = call noundef float @_ZN4pbrt3SqrIfEET_S1_(float noundef %150)
  %152 = getelementptr inbounds nuw %"class.pbrt::HairBxDF", ptr %17, i32 0, i32 7
  %153 = load i32, ptr %16, align 4, !tbaa !17
  %154 = sub nsw i32 %153, 1
  %155 = sext i32 %154 to i64
  %156 = getelementptr inbounds [3 x float], ptr %152, i64 0, i64 %155
  %157 = load float, ptr %156, align 4, !tbaa !9
  %158 = call noundef float @_ZN4pbrt3SqrIfEET_S1_(float noundef %157)
  %159 = fsub float %151, %158
  %160 = getelementptr inbounds nuw %"class.pbrt::HairBxDF", ptr %17, i32 0, i32 8
  %161 = load i32, ptr %16, align 4, !tbaa !17
  %162 = sext i32 %161 to i64
  %163 = getelementptr inbounds [3 x float], ptr %160, i64 0, i64 %162
  store float %159, ptr %163, align 4, !tbaa !9
  br label %164

164:                                              ; preds = %126
  %165 = load i32, ptr %16, align 4, !tbaa !17
  %166 = add nsw i32 %165, 1
  store i32 %166, ptr %16, align 4, !tbaa !17
  br label %122, !llvm.loop !172

167:                                              ; preds = %125
  ret void
}