; Function Attrs: mustprogress uwtable
define dso_local void @_ZN4pbrt8HairBxDFC2EffRKNS_15SampledSpectrumEfff(ptr noundef nonnull writeonly align 4 captures(none) dereferenceable(76) initializes((0, 32)) %0, float noundef %1, float noundef %2, ptr noundef nonnull readonly align 4 captures(none) dereferenceable(16) %3, float noundef %4, float noundef %5, float noundef %6) unnamed_addr #3 align 2 {
  store float %1, ptr %0, align 4, !tbaa !155
  %8 = getelementptr inbounds nuw i8, ptr %0, i64 4
  store float %2, ptr %8, align 4, !tbaa !157
  %9 = getelementptr inbounds nuw i8, ptr %0, i64 8
  tail call void @llvm.memcpy.p0.p0.i64(ptr noundef nonnull align 4 dereferenceable(16) %9, ptr noundef nonnull align 4 dereferenceable(16) %3, i64 16, i1 false), !tbaa.struct !18
  %10 = getelementptr inbounds nuw i8, ptr %0, i64 24
  store float %4, ptr %10, align 4, !tbaa !158
  %11 = getelementptr inbounds nuw i8, ptr %0, i64 28
  store float %5, ptr %11, align 4, !tbaa !159
  %12 = tail call float @llvm.fabs.f32(float %1)
  %or.cond = fcmp ugt float %12, 1.000000e+00
  br i1 %or.cond, label %13, label %14

13:                                               ; preds = %7
  tail call void @_ZN4pbrt8LogFatalIJRA18_KcEEEvNS_8LogLevelEPS1_iS5_DpOT_(i32 noundef 2, ptr noundef nonnull @.str.16, i32 noundef 278, ptr noundef nonnull @.str.3, ptr noundef nonnull align 1 dereferenceable(18) @.str.21) #32
  unreachable

14:                                               ; preds = %7
  %15 = fcmp oge float %4, 0.000000e+00
  %16 = fcmp ole float %4, 1.000000e+00
  %or.cond3 = and i1 %15, %16
  br i1 %or.cond3, label %18, label %17

17:                                               ; preds = %14
  tail call void @_ZN4pbrt8LogFatalIJRA27_KcEEEvNS_8LogLevelEPS1_iS5_DpOT_(i32 noundef 2, ptr noundef nonnull @.str.16, i32 noundef 279, ptr noundef nonnull @.str.3, ptr noundef nonnull align 1 dereferenceable(27) @.str.22) #32
  unreachable

18:                                               ; preds = %14
  %19 = fcmp oge float %5, 0.000000e+00
  %20 = fcmp ole float %5, 1.000000e+00
  %or.cond5 = and i1 %19, %20
  br i1 %or.cond5, label %.critedge, label %21

21:                                               ; preds = %18
  tail call void @_ZN4pbrt8LogFatalIJRA27_KcEEEvNS_8LogLevelEPS1_iS5_DpOT_(i32 noundef 2, ptr noundef nonnull @.str.16, i32 noundef 280, ptr noundef nonnull @.str.3, ptr noundef nonnull align 1 dereferenceable(27) @.str.23) #32
  unreachable

.critedge:                                        ; preds = %18
  %22 = fmul float %4, 0x3FE73B6460000000
  %23 = fmul float %4, %4
  %24 = fmul float %23, 0x3FE9FBE760000000
  %25 = fadd float %22, %24
  %26 = fmul float %23, %23
  %27 = fmul float %4, %26
  %28 = fmul float %27, %27
  %29 = fmul float %28, %28
  %30 = fmul float %29, 0x400D9999A0000000
  %31 = fadd float %25, %30
  %32 = fmul float %31, %31
  %33 = getelementptr inbounds nuw i8, ptr %0, i64 32
  store float %32, ptr %33, align 4, !tbaa !4
  %34 = fmul float %32, 2.500000e-01
  %35 = getelementptr inbounds nuw i8, ptr %0, i64 36
  store float %34, ptr %35, align 4, !tbaa !4
  %36 = fmul float %32, 4.000000e+00
  %37 = getelementptr inbounds nuw i8, ptr %0, i64 40
  store float %36, ptr %37, align 4, !tbaa !4
  %38 = getelementptr inbounds nuw i8, ptr %0, i64 44
  store float %36, ptr %38, align 4, !tbaa !4
  %39 = fmul float %5, 0x3FD0F5C280000000
  %40 = fmul float %5, %5
  %41 = fmul float %40, 0x3FF31A9FC0000000
  %42 = fadd float %39, %41
  %43 = fmul float %40, %40
  %44 = fmul float %5, %43
  %45 = fmul float %44, %44
  %46 = fmul float %5, %45
  %47 = fmul float %46, %46
  %48 = fmul float %47, 0x40157CEDA0000000
  %49 = fadd float %42, %48
  %50 = fmul float %49, 0x3FE40D9320000000
  %51 = getelementptr inbounds nuw i8, ptr %0, i64 48
  store float %50, ptr %51, align 4, !tbaa !160
  %52 = fmul float %6, 0x3F91DF46A0000000
  %53 = tail call noundef float @sinf(float noundef %52) #31, !tbaa !67
  %54 = getelementptr inbounds nuw i8, ptr %0, i64 52
  store float %53, ptr %54, align 4, !tbaa !4
  %55 = fmul float %53, %53
  %56 = fsub float 1.000000e+00, %55
  %57 = fcmp ogt float %56, 0.000000e+00
  %.sroa.speculated.i = select i1 %57, float %56, float 0.000000e+00
  %sqrt.i = tail call noundef float @llvm.sqrt.f32(float %.sroa.speculated.i)
  %58 = getelementptr inbounds nuw i8, ptr %0, i64 64
  store float %sqrt.i, ptr %58, align 4, !tbaa !4
  br label %60

59:                                               ; preds = %60
  ret void

60:                                               ; preds = %.critedge, %60
  %61 = phi float [ %53, %.critedge ], [ %64, %60 ]
  %62 = phi float [ %sqrt.i, %.critedge ], [ %68, %60 ]
  %indvars.iv = phi i64 [ 1, %.critedge ], [ %indvars.iv.next, %60 ]
  %63 = fmul float %62, 2.000000e+00
  %64 = fmul float %63, %61
  %65 = getelementptr inbounds nuw [3 x float], ptr %54, i64 0, i64 %indvars.iv
  store float %64, ptr %65, align 4, !tbaa !4
  %66 = fmul float %62, %62
  %67 = fmul float %61, %61
  %68 = fsub float %66, %67
  %69 = getelementptr inbounds nuw [3 x float], ptr %58, i64 0, i64 %indvars.iv
  store float %68, ptr %69, align 4, !tbaa !4
  %indvars.iv.next = add nuw nsw i64 %indvars.iv, 1
  %exitcond.not = icmp eq i64 %indvars.iv.next, 3
  br i1 %exitcond.not, label %59, label %60, !llvm.loop !161
}